target datalayout = "e-m:e-p270:32:32-p271:32:32-p272:64:64-i64:64-i128:128-f80:128-n8:16:32:64-S128"
target triple = "x86_64-pc-linux-gnu"

%struct._value_string_ext = type { ptr, i32, i32, ptr, ptr }
%struct._address = type { i32, i32, ptr, ptr }
%struct._packet_info = type { ptr, ptr, i32, i32, %struct.nstime_t, %struct.nstime_t, %struct.nstime_t, i32, ptr, ptr, ptr, ptr, %struct._address, %struct._address, %struct._address, %struct._address, %struct._address, %struct._address, i32, ptr, i32, %struct.anon.3, i32, i32, i32, i32, ptr, i32, ptr, ptr, i16, i16, i32, i32, i16, i32, i32, ptr, ptr, ptr, i8, i8, i16, i16, i16, i32, i16, i16, ptr, ptr, ptr, ptr, ptr, i32 }
%struct.nstime_t = type { i64, i32 }
%struct.anon.3 = type { i8, [3 x i8] }

@hf_epl_soa_stat_ms = internal global i32 0, align 4
@hf_epl_soa_stat_cs = internal global i32 0, align 4
@hf_epl_soa_ea = internal global i32 0, align 4
@hf_epl_soa_er = internal global i32 0, align 4
@hf_epl_soa_eplv = internal global i32 0, align 4
@hf_epl_asnd_svid = internal global i32 0, align 4
@hf_epl_asnd_svtg = internal global i32 0, align 4
@hf_epl_asnd_nmtrequest_rcid = internal global i32 0, align 4
@hf_epl_asnd_nmtrequest_rct = internal global i32 0, align 4
@hf_epl_asnd_nmtrequest_rcd = internal global i32 0, align 4
@asnd_cid_vals_ext = internal global %struct._value_string_ext { ptr @_try_val_to_str_ext_init, i32 0, i32 31, ptr @asnd_cid_vals, ptr @.str.579 }, align 8
@ett_epl_sdo = internal global i32 0, align 4
@.str.724 = private unnamed_addr constant [13 x i8] c"Unknown (%d)\00", align 1
@.str.1091 = private unnamed_addr constant [7 x i8] c"(%s)  \00", align 1
@.str.1092 = private unnamed_addr constant [12 x i8] c"UNKNOWN(%d)\00", align 1

; Function Attrs: nounwind uwtable
define internal i32 @dissect_epl_asnd_nmtreq(ptr noundef %0, ptr noundef %1, ptr noundef %2, i32 noundef %3) #0 {
  %5 = alloca ptr, align 8
  %6 = alloca ptr, align 8
  %7 = alloca ptr, align 8
  %8 = alloca i32, align 4
  %9 = alloca i8, align 1
  store ptr %0, ptr %5, align 8
  store ptr %1, ptr %6, align 8
  store ptr %2, ptr %7, align 8
  store i32 %3, ptr %8, align 4
  %10 = load ptr, ptr %6, align 8
  %11 = load i32, ptr %8, align 4
  %12 = call zeroext i8 @tvb_get_guint8(ptr noundef %10, i32 noundef %11)
  store i8 %12, ptr %9, align 1
  %13 = load ptr, ptr %5, align 8
  %14 = load i32, ptr @hf_epl_asnd_nmtrequest_rcid, align 4
  %15 = load ptr, ptr %6, align 8
  %16 = load i32, ptr %8, align 4
  %17 = load i8, ptr %9, align 1
  %18 = zext i8 %17 to i32
  %19 = call ptr @proto_tree_add_uint(ptr noundef %13, i32 noundef %14, ptr noundef %15, i32 noundef %16, i32 noundef 1, i32 noundef %18)
  %20 = load ptr, ptr %5, align 8
  %21 = load i32, ptr @hf_epl_asnd_nmtrequest_rct, align 4
  %22 = load ptr, ptr %6, align 8
  %23 = load i32, ptr %8, align 4
  %24 = add i32 %23, 1
  %25 = call ptr @proto_tree_add_item(ptr noundef %20, i32 noundef %21, ptr noundef %22, i32 noundef %24, i32 noundef 1, i32 noundef -2147483648)
  %26 = load ptr, ptr %5, align 8
  %27 = load i32, ptr @hf_epl_asnd_nmtrequest_rcd, align 4
  %28 = load ptr, ptr %6, align 8
  %29 = load i32, ptr %8, align 4
  %30 = add i32 %29, 2
  %31 = call ptr @proto_tree_add_item(ptr noundef %26, i32 noundef %27, ptr noundef %28, i32 noundef %30, i32 noundef -1, i32 noundef 0)
  %32 = load i32, ptr %8, align 4
  %33 = add i32 %32, 2
  store i32 %33, ptr %8, align 4
  %34 = load ptr, ptr %7, align 8
  %35 = getelementptr inbounds %struct._packet_info, ptr %34, i32 0, i32 1
  %36 = load ptr, ptr %35, align 8
  %37 = load i8, ptr %9, align 1
  %38 = zext i8 %37 to i32
  %39 = call ptr @val_to_str_ext(i32 noundef %38, ptr noundef @asnd_cid_vals_ext, ptr noundef @.str.724)
  call void @col_append_str(ptr noundef %36, i32 noundef 25, ptr noundef %39)
  %40 = load i32, ptr %8, align 4
  ret i32 %40
}

; Function Attrs: nounwind uwtable
define internal i32 @dissect_epl_ainv(ptr noundef %0, ptr noundef %1, ptr noundef %2, i32 noundef %3) #0 {
  %5 = alloca ptr, align 8
  %6 = alloca ptr, align 8
  %7 = alloca ptr, align 8
  %8 = alloca i32, align 4
  %9 = alloca i8, align 1
  %10 = alloca ptr, align 8
  %11 = alloca ptr, align 8
  %12 = alloca ptr, align 8
  store ptr %0, ptr %5, align 8
  store ptr %1, ptr %6, align 8
  store ptr %2, ptr %7, align 8
  store i32 %3, ptr %8, align 4
  %13 = load ptr, ptr %7, align 8
  %14 = getelementptr inbounds %struct._packet_info, ptr %13, i32 0, i32 23
  %15 = load i32, ptr %14, align 4
  %16 = icmp ne i32 %15, 240
  br i1 %16, label %17, label %23

17:                                               ; preds = %4
  %18 = load ptr, ptr %5, align 8
  %19 = load i32, ptr @hf_epl_soa_stat_cs, align 4
  %20 = load ptr, ptr %6, align 8
  %21 = load i32, ptr %8, align 4
  %22 = call ptr @proto_tree_add_item(ptr noundef %18, i32 noundef %19, ptr noundef %20, i32 noundef %21, i32 noundef 1, i32 noundef -2147483648)
  br label %29

23:                                               ; preds = %4
  %24 = load ptr, ptr %5, align 8
  %25 = load i32, ptr @hf_epl_soa_stat_ms, align 4
  %26 = load ptr, ptr %6, align 8
  %27 = load i32, ptr %8, align 4
  %28 = call ptr @proto_tree_add_item(ptr noundef %24, i32 noundef %25, ptr noundef %26, i32 noundef %27, i32 noundef 1, i32 noundef -2147483648)
  br label %29

29:                                               ; preds = %23, %17
  %30 = load i32, ptr %8, align 4
  %31 = add i32 %30, 2
  store i32 %31, ptr %8, align 4
  %32 = load ptr, ptr %5, align 8
  %33 = load i32, ptr @hf_epl_soa_ea, align 4
  %34 = load ptr, ptr %6, align 8
  %35 = load i32, ptr %8, align 4
  %36 = call ptr @proto_tree_add_item(ptr noundef %32, i32 noundef %33, ptr noundef %34, i32 noundef %35, i32 noundef 1, i32 noundef -2147483648)
  %37 = load ptr, ptr %5, align 8
  %38 = load i32, ptr @hf_epl_soa_er, align 4
  %39 = load ptr, ptr %6, align 8
  %40 = load i32, ptr %8, align 4
  %41 = call ptr @proto_tree_add_item(ptr noundef %37, i32 noundef %38, ptr noundef %39, i32 noundef %40, i32 noundef 1, i32 noundef -2147483648)
  %42 = load i32, ptr %8, align 4
  %43 = add i32 %42, 1
  store i32 %43, ptr %8, align 4
  %44 = load ptr, ptr %6, align 8
  %45 = load i32, ptr %8, align 4
  %46 = call zeroext i8 @tvb_get_guint8(ptr noundef %44, i32 noundef %45)
  store i8 %46, ptr %9, align 1
  %47 = load ptr, ptr %7, align 8
  %48 = getelementptr inbounds %struct._packet_info, ptr %47, i32 0, i32 1
  %49 = load ptr, ptr %48, align 8
  %50 = load i8, ptr %9, align 1
  %51 = zext i8 %50 to i32
  %52 = call ptr @rval_to_str(i32 noundef %51, ptr noundef @asnd_svid_id_vals, ptr noundef @.str.1092)
  call void (ptr, i32, ptr, ...) @col_append_fstr(ptr noundef %49, i32 noundef 25, ptr noundef @.str.1091, ptr noundef %52)
  %53 = load ptr, ptr %5, align 8
  %54 = load i32, ptr @hf_epl_asnd_svid, align 4
  %55 = load ptr, ptr %6, align 8
  %56 = load i32, ptr %8, align 4
  %57 = load i8, ptr %9, align 1
  %58 = zext i8 %57 to i32
  %59 = call ptr @proto_tree_add_uint(ptr noundef %53, i32 noundef %54, ptr noundef %55, i32 noundef %56, i32 noundef 1, i32 noundef %58)
  store ptr %59, ptr %10, align 8
  %60 = load i32, ptr %8, align 4
  %61 = add i32 %60, 1
  store i32 %61, ptr %8, align 4
  %62 = load i8, ptr %9, align 1
  %63 = zext i8 %62 to i32
  switch i32 %63, label %113 [
    i32 1, label %64
    i32 2, label %73
    i32 3, label %79
    i32 4, label %85
    i32 255, label %91
    i32 5, label %104
  ]

64:                                               ; preds = %29
  %65 = load ptr, ptr %7, align 8
  %66 = call ptr @epl_get_convo(ptr noundef %65, i32 noundef 1)
  store ptr %66, ptr %12, align 8
  %67 = load ptr, ptr %12, align 8
  %68 = load ptr, ptr %5, align 8
  %69 = load ptr, ptr %6, align 8
  %70 = load ptr, ptr %7, align 8
  %71 = load i32, ptr %8, align 4
  %72 = call i32 @dissect_epl_asnd_ires(ptr noundef %67, ptr noundef %68, ptr noundef %69, ptr noundef %70, i32 noundef %71)
  store i32 %72, ptr %8, align 4
  br label %113

73:                                               ; preds = %29
  %74 = load ptr, ptr %5, align 8
  %75 = load ptr, ptr %6, align 8
  %76 = load ptr, ptr %7, align 8
  %77 = load i32, ptr %8, align 4
  %78 = call i32 @dissect_epl_asnd_sres(ptr noundef %74, ptr noundef %75, ptr noundef %76, i32 noundef %77)
  store i32 %78, ptr %8, align 4
  br label %113

79:                                               ; preds = %29
  %80 = load ptr, ptr %5, align 8
  %81 = load ptr, ptr %6, align 8
  %82 = load ptr, ptr %7, align 8
  %83 = load i32, ptr %8, align 4
  %84 = call i32 @dissect_epl_asnd_nmtreq(ptr noundef %80, ptr noundef %81, ptr noundef %82, i32 noundef %83)
  store i32 %84, ptr %8, align 4
  br label %113

85:                                               ; preds = %29
  %86 = load ptr, ptr %5, align 8
  %87 = load ptr, ptr %6, align 8
  %88 = load ptr, ptr %7, align 8
  %89 = load i32, ptr %8, align 4
  %90 = call i32 @dissect_epl_asnd_nmtcmd(ptr noundef %86, ptr noundef %87, ptr noundef %88, i32 noundef %89)
  store i32 %90, ptr %8, align 4
  br label %113

91:                                               ; preds = %29
  %92 = load ptr, ptr %5, align 8
  %93 = load i32, ptr @hf_epl_asnd_svtg, align 4
  %94 = load ptr, ptr %6, align 8
  %95 = load i32, ptr %8, align 4
  %96 = call ptr @proto_tree_add_item(ptr noundef %92, i32 noundef %93, ptr noundef %94, i32 noundef %95, i32 noundef 1, i32 noundef -2147483648)
  %97 = load i32, ptr %8, align 4
  %98 = add i32 %97, 1
  store i32 %98, ptr %8, align 4
  %99 = load ptr, ptr %5, align 8
  %100 = load i32, ptr @hf_epl_soa_eplv, align 4
  %101 = load ptr, ptr %6, align 8
  %102 = load i32, ptr %8, align 4
  %103 = call ptr @proto_tree_add_item(ptr noundef %99, i32 noundef %100, ptr noundef %101, i32 noundef %102, i32 noundef 1, i32 noundef -2147483648)
  br label %113

104:                                              ; preds = %29
  %105 = load ptr, ptr %10, align 8
  %106 = load i32, ptr @ett_epl_sdo, align 4
  %107 = call ptr @proto_item_add_subtree(ptr noundef %105, i32 noundef %106)
  store ptr %107, ptr %11, align 8
  %108 = load ptr, ptr %11, align 8
  %109 = load ptr, ptr %6, align 8
  %110 = load ptr, ptr %7, align 8
  %111 = load i32, ptr %8, align 4
  %112 = call i32 @dissect_epl_asnd_sdo(ptr noundef %108, ptr noundef %109, ptr noundef %110, i32 noundef %111)
  store i32 %112, ptr %8, align 4
  br label %113

113:                                              ; preds = %104, %91, %85, %79, %73, %64, %29
  %114 = load i32, ptr %8, align 4
  ret i32 %114
}