; Function Attrs: nounwind uwtable
define internal fastcc i32 @dissect_epl_ainv(ptr noundef %0, ptr noundef %1, ptr noundef %2) unnamed_addr #2 {
  %4 = getelementptr inbounds nuw i8, ptr %2, i64 284
  %5 = load i32, ptr %4, align 4
  %.not = icmp eq i32 %5, 240
  %hf_epl_soa_stat_ms.val = load i32, ptr @hf_epl_soa_stat_ms, align 4
  %hf_epl_soa_stat_cs.val = load i32, ptr @hf_epl_soa_stat_cs, align 4
  %6 = select i1 %.not, i32 %hf_epl_soa_stat_ms.val, i32 %hf_epl_soa_stat_cs.val
  %7 = tail call ptr @proto_tree_add_item(ptr noundef %0, i32 noundef %6, ptr noundef %1, i32 noundef 3, i32 noundef 1, i32 noundef -2147483648) #18
  %8 = load i32, ptr @hf_epl_soa_ea, align 4
  %9 = tail call ptr @proto_tree_add_item(ptr noundef %0, i32 noundef %8, ptr noundef %1, i32 noundef 5, i32 noundef 1, i32 noundef -2147483648) #18
  %10 = load i32, ptr @hf_epl_soa_er, align 4
  %11 = tail call ptr @proto_tree_add_item(ptr noundef %0, i32 noundef %10, ptr noundef %1, i32 noundef 5, i32 noundef 1, i32 noundef -2147483648) #18
  %12 = tail call zeroext i8 @tvb_get_guint8(ptr noundef %1, i32 noundef 6) #18
  %13 = getelementptr inbounds nuw i8, ptr %2, i64 8
  %14 = load ptr, ptr %13, align 8
  %15 = zext i8 %12 to i32
  %16 = tail call ptr @rval_to_str(i32 noundef %15, ptr noundef nonnull @asnd_svid_id_vals, ptr noundef nonnull @.str.1092) #18
  tail call void (ptr, i32, ptr, ...) @col_append_fstr(ptr noundef %14, i32 noundef 25, ptr noundef nonnull @.str.1091, ptr noundef %16) #18
  %17 = load i32, ptr @hf_epl_asnd_svid, align 4
  %18 = tail call ptr @proto_tree_add_uint(ptr noundef %0, i32 noundef %17, ptr noundef %1, i32 noundef 6, i32 noundef 1, i32 noundef %15) #18
  switch i8 %12, label %46 [
    i8 1, label %19
    i8 2, label %22
    i8 3, label %24
    i8 4, label %35
    i8 -1, label %37
    i8 5, label %42
  ]

19:                                               ; preds = %3
  %20 = tail call fastcc ptr @epl_get_convo(ptr noundef nonnull %2, i32 noundef 1)
  %21 = tail call fastcc i32 @dissect_epl_asnd_ires(ptr noundef %20, ptr noundef %0, ptr noundef %1, ptr noundef nonnull %2, i32 noundef 7)
  br label %46

22:                                               ; preds = %3
  %23 = tail call fastcc i32 @dissect_epl_asnd_sres(ptr noundef %0, ptr noundef %1, ptr noundef nonnull %2, i32 noundef 7)
  br label %46

24:                                               ; preds = %3
  %25 = tail call zeroext i8 @tvb_get_guint8(ptr noundef %1, i32 noundef 7) #18
  %26 = load i32, ptr @hf_epl_asnd_nmtrequest_rcid, align 4
  %27 = zext i8 %25 to i32
  %28 = tail call ptr @proto_tree_add_uint(ptr noundef %0, i32 noundef %26, ptr noundef %1, i32 noundef 7, i32 noundef 1, i32 noundef %27) #18
  %29 = load i32, ptr @hf_epl_asnd_nmtrequest_rct, align 4
  %30 = tail call ptr @proto_tree_add_item(ptr noundef %0, i32 noundef %29, ptr noundef %1, i32 noundef 8, i32 noundef 1, i32 noundef -2147483648) #18
  %31 = load i32, ptr @hf_epl_asnd_nmtrequest_rcd, align 4
  %32 = tail call ptr @proto_tree_add_item(ptr noundef %0, i32 noundef %31, ptr noundef %1, i32 noundef 9, i32 noundef -1, i32 noundef 0) #18
  %33 = load ptr, ptr %13, align 8
  %34 = tail call ptr @val_to_str_ext(i32 noundef %27, ptr noundef nonnull @asnd_cid_vals_ext, ptr noundef nonnull @.str.724) #18
  tail call void @col_append_str(ptr noundef %33, i32 noundef 25, ptr noundef %34) #18
  br label %46

35:                                               ; preds = %3
  %36 = tail call fastcc i32 @dissect_epl_asnd_nmtcmd(ptr noundef %0, ptr noundef %1, ptr noundef nonnull %2, i32 noundef 7)
  br label %46

37:                                               ; preds = %3
  %38 = load i32, ptr @hf_epl_asnd_svtg, align 4
  %39 = tail call ptr @proto_tree_add_item(ptr noundef %0, i32 noundef %38, ptr noundef %1, i32 noundef 7, i32 noundef 1, i32 noundef -2147483648) #18
  %40 = load i32, ptr @hf_epl_soa_eplv, align 4
  %41 = tail call ptr @proto_tree_add_item(ptr noundef %0, i32 noundef %40, ptr noundef %1, i32 noundef 8, i32 noundef 1, i32 noundef -2147483648) #18
  br label %46

42:                                               ; preds = %3
  %43 = load i32, ptr @ett_epl_sdo, align 4
  %44 = tail call ptr @proto_item_add_subtree(ptr noundef %18, i32 noundef %43) #18
  %45 = tail call fastcc i32 @dissect_epl_asnd_sdo(ptr noundef %44, ptr noundef %1, ptr noundef nonnull %2, i32 noundef 7)
  br label %46

46:                                               ; preds = %42, %37, %35, %24, %22, %19, %3
  %.0 = phi i32 [ 7, %3 ], [ %45, %42 ], [ 8, %37 ], [ %36, %35 ], [ 9, %24 ], [ %23, %22 ], [ %21, %19 ]
  ret i32 %.0
}